target datalayout = "e-m:e-p270:32:32-p271:32:32-p272:64:64-i64:64-i128:128-f80:128-n8:16:32:64-S128"
target triple = "x86_64-unknown-linux-gnu"

%struct.mi_os_mem_config_s = type { i64, i64, i64, i8, i8, i8 }
%struct.mi_stats_s = type { %struct.mi_stat_count_s, %struct.mi_stat_count_s, %struct.mi_stat_count_s, %struct.mi_stat_count_s, %struct.mi_stat_count_s, %struct.mi_stat_count_s, %struct.mi_stat_count_s, %struct.mi_stat_count_s, %struct.mi_stat_count_s, %struct.mi_stat_count_s, %struct.mi_stat_count_s, %struct.mi_stat_count_s, %struct.mi_stat_count_s, %struct.mi_stat_count_s, %struct.mi_stat_count_s, %struct.mi_stat_counter_s, %struct.mi_stat_counter_s, %struct.mi_stat_counter_s, %struct.mi_stat_counter_s, %struct.mi_stat_counter_s, %struct.mi_stat_counter_s, %struct.mi_stat_counter_s, %struct.mi_stat_counter_s, %struct.mi_stat_counter_s, %struct.mi_stat_counter_s }
%struct.mi_stat_count_s = type { i64, i64, i64, i64 }
%struct.mi_stat_counter_s = type { i64, i64 }
%struct.mi_memid_s = type { %union.anon, i8, i8, i8, i32 }
%union.anon = type { %struct.mi_memid_os_info }
%struct.mi_memid_os_info = type { ptr, i64 }

@mi_os_mem_config = internal global %struct.mi_os_mem_config_s { i64 4096, i64 0, i64 4096, i8 1, i8 0, i8 1 }, align 8
@_mi_stats_main = external global %struct.mi_stats_s, align 64
@.str.6 = private unnamed_addr constant [77 x i8] c"unable to free OS memory (error: %d (0x%x), size: 0x%zx bytes, address: %p)\0A\00", align 1

; Function Attrs: nounwind uwtable
define internal i64 @_mi_align_up(i64 noundef %sz, i64 noundef %alignment) #0 {
entry:
  %retval = alloca i64, align 8
  %sz.addr = alloca i64, align 8
  %alignment.addr = alloca i64, align 8
  %mask = alloca i64, align 8
  store i64 %sz, ptr %sz.addr, align 8
  store i64 %alignment, ptr %alignment.addr, align 8
  %0 = load i64, ptr %alignment.addr, align 8
  %sub = sub i64 %0, 1
  store i64 %sub, ptr %mask, align 8
  %1 = load i64, ptr %alignment.addr, align 8
  %2 = load i64, ptr %mask, align 8
  %and = and i64 %1, %2
  %cmp = icmp eq i64 %and, 0
  br i1 %cmp, label %if.then, label %if.else

if.then:                                          ; preds = %entry
  %3 = load i64, ptr %sz.addr, align 8
  %4 = load i64, ptr %mask, align 8
  %add = add i64 %3, %4
  %5 = load i64, ptr %mask, align 8
  %not = xor i64 %5, -1
  %and1 = and i64 %add, %not
  store i64 %and1, ptr %retval, align 8
  br label %return

if.else:                                          ; preds = %entry
  %6 = load i64, ptr %sz.addr, align 8
  %7 = load i64, ptr %mask, align 8
  %add2 = add i64 %6, %7
  %8 = load i64, ptr %alignment.addr, align 8
  %div = udiv i64 %add2, %8
  %9 = load i64, ptr %alignment.addr, align 8
  %mul = mul i64 %div, %9
  store i64 %mul, ptr %retval, align 8
  br label %return

return:                                           ; preds = %if.else, %if.then
  %10 = load i64, ptr %retval, align 8
  ret i64 %10
}

; Function Attrs: nounwind uwtable
define hidden i64 @_mi_os_page_size() #0 {
entry:
  %0 = load i64, ptr @mi_os_mem_config, align 8
  ret i64 %0
}

; Function Attrs: nounwind uwtable
define internal void @mi_os_prim_free(ptr noundef %addr, i64 noundef %size, i1 noundef zeroext %still_committed, ptr noundef %tld_stats) #0 {
entry:
  %addr.addr = alloca ptr, align 8
  %size.addr = alloca i64, align 8
  %still_committed.addr = alloca i8, align 1
  %tld_stats.addr = alloca ptr, align 8
  %err = alloca i32, align 4
  %stats = alloca ptr, align 8
  store ptr %addr, ptr %addr.addr, align 8
  store i64 %size, ptr %size.addr, align 8
  %frombool = zext i1 %still_committed to i8
  store i8 %frombool, ptr %still_committed.addr, align 1
  store ptr %tld_stats, ptr %tld_stats.addr, align 8
  %0 = load ptr, ptr %addr.addr, align 8
  %cmp = icmp eq ptr %0, null
  br i1 %cmp, label %if.then, label %lor.lhs.false

lor.lhs.false:                                    ; preds = %entry
  %1 = load i64, ptr %size.addr, align 8
  %cmp1 = icmp eq i64 %1, 0
  br i1 %cmp1, label %if.then, label %if.end

if.then:                                          ; preds = %lor.lhs.false, %entry
  br label %return

if.end:                                           ; preds = %lor.lhs.false
  %2 = load ptr, ptr %addr.addr, align 8
  %3 = load i64, ptr %size.addr, align 8
  %call = call i32 @_mi_prim_free(ptr noundef %2, i64 noundef %3) #5
  store i32 %call, ptr %err, align 4
  %4 = load i32, ptr %err, align 4
  %cmp2 = icmp ne i32 %4, 0
  br i1 %cmp2, label %if.then3, label %if.end4

if.then3:                                         ; preds = %if.end
  %5 = load i32, ptr %err, align 4
  %6 = load i32, ptr %err, align 4
  %7 = load i64, ptr %size.addr, align 8
  %8 = load ptr, ptr %addr.addr, align 8
  call void (ptr, ...) @_mi_warning_message(ptr noundef @.str.6, i32 noundef %5, i32 noundef %6, i64 noundef %7, ptr noundef %8) #5
  br label %if.end4

if.end4:                                          ; preds = %if.then3, %if.end
  store ptr @_mi_stats_main, ptr %stats, align 8
  %9 = load i8, ptr %still_committed.addr, align 1
  %tobool = trunc i8 %9 to i1
  br i1 %tobool, label %if.then5, label %if.end6

if.then5:                                         ; preds = %if.end4
  %10 = load ptr, ptr %stats, align 8
  %committed = getelementptr inbounds %struct.mi_stats_s, ptr %10, i32 0, i32 3
  %11 = load i64, ptr %size.addr, align 8
  call void @_mi_stat_decrease(ptr noundef %committed, i64 noundef %11) #5
  br label %if.end6

if.end6:                                          ; preds = %if.then5, %if.end4
  %12 = load ptr, ptr %stats, align 8
  %reserved = getelementptr inbounds %struct.mi_stats_s, ptr %12, i32 0, i32 2
  %13 = load i64, ptr %size.addr, align 8
  call void @_mi_stat_decrease(ptr noundef %reserved, i64 noundef %13) #5
  br label %return

return:                                           ; preds = %if.end6, %if.then
  ret void
}

; Function Attrs: nounwind uwtable
define internal void @mi_os_free_huge_os_pages(ptr noundef %p, i64 noundef %size, ptr noundef %stats) #0 {
entry:
  %p.addr = alloca ptr, align 8
  %size.addr = alloca i64, align 8
  %stats.addr = alloca ptr, align 8
  %base = alloca ptr, align 8
  store ptr %p, ptr %p.addr, align 8
  store i64 %size, ptr %size.addr, align 8
  store ptr %stats, ptr %stats.addr, align 8
  %0 = load ptr, ptr %p.addr, align 8
  %cmp = icmp eq ptr %0, null
  br i1 %cmp, label %if.then, label %lor.lhs.false

lor.lhs.false:                                    ; preds = %entry
  %1 = load i64, ptr %size.addr, align 8
  %cmp1 = icmp eq i64 %1, 0
  br i1 %cmp1, label %if.then, label %if.end

if.then:                                          ; preds = %lor.lhs.false, %entry
  br label %while.end

if.end:                                           ; preds = %lor.lhs.false
  %2 = load ptr, ptr %p.addr, align 8
  store ptr %2, ptr %base, align 8
  br label %while.cond

while.cond:                                       ; preds = %while.body, %if.end
  %3 = load i64, ptr %size.addr, align 8
  %cmp2 = icmp uge i64 %3, 1073741824
  br i1 %cmp2, label %while.body, label %while.end

while.body:                                       ; preds = %while.cond
  %4 = load ptr, ptr %base, align 8
  %5 = load ptr, ptr %stats.addr, align 8
  call void @mi_os_prim_free(ptr noundef %4, i64 noundef 1073741824, i1 noundef zeroext true, ptr noundef %5) #5
  %6 = load i64, ptr %size.addr, align 8
  %sub = sub i64 %6, 1073741824
  store i64 %sub, ptr %size.addr, align 8
  %7 = load ptr, ptr %base, align 8
  %add.ptr = getelementptr inbounds i8, ptr %7, i64 1073741824
  store ptr %add.ptr, ptr %base, align 8
  br label %while.cond, !llvm.loop !4

while.end:                                        ; preds = %while.cond, %if.then
  ret void
}

; Function Attrs: nounwind uwtable
define hidden i64 @_mi_os_good_alloc_size(i64 noundef %size) #0 {
entry:
  %retval = alloca i64, align 8
  %size.addr = alloca i64, align 8
  %align_size = alloca i64, align 8
  store i64 %size, ptr %size.addr, align 8
  %0 = load i64, ptr %size.addr, align 8
  %cmp = icmp ult i64 %0, 524288
  br i1 %cmp, label %if.then, label %if.else

if.then:                                          ; preds = %entry
  %call = call i64 @_mi_os_page_size() #5
  store i64 %call, ptr %align_size, align 8
  br label %if.end12

if.else:                                          ; preds = %entry
  %1 = load i64, ptr %size.addr, align 8
  %cmp1 = icmp ult i64 %1, 2097152
  br i1 %cmp1, label %if.then2, label %if.else3

if.then2:                                         ; preds = %if.else
  store i64 65536, ptr %align_size, align 8
  br label %if.end11

if.else3:                                         ; preds = %if.else
  %2 = load i64, ptr %size.addr, align 8
  %cmp4 = icmp ult i64 %2, 8388608
  br i1 %cmp4, label %if.then5, label %if.else6

if.then5:                                         ; preds = %if.else3
  store i64 262144, ptr %align_size, align 8
  br label %if.end10

if.else6:                                         ; preds = %if.else3
  %3 = load i64, ptr %size.addr, align 8
  %cmp7 = icmp ult i64 %3, 33554432
  br i1 %cmp7, label %if.then8, label %if.else9

if.then8:                                         ; preds = %if.else6
  store i64 1048576, ptr %align_size, align 8
  br label %if.end

if.else9:                                         ; preds = %if.else6
  store i64 4194304, ptr %align_size, align 8
  br label %if.end

if.end:                                           ; preds = %if.else9, %if.then8
  br label %if.end10

if.end10:                                         ; preds = %if.end, %if.then5
  br label %if.end11

if.end11:                                         ; preds = %if.end10, %if.then2
  br label %if.end12

if.end12:                                         ; preds = %if.end11, %if.then
  %4 = load i64, ptr %size.addr, align 8
  %5 = load i64, ptr %align_size, align 8
  %sub = sub i64 -1, %5
  %cmp13 = icmp uge i64 %4, %sub
  %lnot = xor i1 %cmp13, true
  %lnot14 = xor i1 %lnot, true
  %lnot.ext = zext i1 %lnot14 to i32
  %conv = sext i32 %lnot.ext to i64
  %tobool = icmp ne i64 %conv, 0
  br i1 %tobool, label %if.then15, label %if.end16

if.then15:                                        ; preds = %if.end12
  %6 = load i64, ptr %size.addr, align 8
  store i64 %6, ptr %retval, align 8
  br label %return

if.end16:                                         ; preds = %if.end12
  %7 = load i64, ptr %size.addr, align 8
  %8 = load i64, ptr %align_size, align 8
  %call17 = call i64 @_mi_align_up(i64 noundef %7, i64 noundef %8) #5
  store i64 %call17, ptr %retval, align 8
  br label %return

return:                                           ; preds = %if.end16, %if.then15
  %9 = load i64, ptr %retval, align 8
  ret i64 %9
}

; Function Attrs: nounwind uwtable
define internal zeroext i1 @mi_memkind_is_os(i32 noundef %memkind) #0 {
entry:
  %memkind.addr = alloca i32, align 4
  store i32 %memkind, ptr %memkind.addr, align 4
  %0 = load i32, ptr %memkind.addr, align 4
  %cmp = icmp uge i32 %0, 3
  br i1 %cmp, label %land.rhs, label %land.end

land.rhs:                                         ; preds = %entry
  %1 = load i32, ptr %memkind.addr, align 4
  %cmp1 = icmp ule i32 %1, 5
  br label %land.end

land.end:                                         ; preds = %land.rhs, %entry
  %2 = phi i1 [ false, %entry ], [ %cmp1, %land.rhs ]
  ret i1 %2
}

; Function Attrs: nounwind uwtable
define hidden void @_mi_os_free_ex(ptr noundef %addr, i64 noundef %size, i1 noundef zeroext %still_committed, ptr noundef byval(%struct.mi_memid_s) align 8 %memid, ptr noundef %tld_stats) #0 {
entry:
  %addr.addr = alloca ptr, align 8
  %size.addr = alloca i64, align 8
  %still_committed.addr = alloca i8, align 1
  %tld_stats.addr = alloca ptr, align 8
  %csize = alloca i64, align 8
  %base = alloca ptr, align 8
  store ptr %addr, ptr %addr.addr, align 8
  store i64 %size, ptr %size.addr, align 8
  %frombool = zext i1 %still_committed to i8
  store i8 %frombool, ptr %still_committed.addr, align 1
  store ptr %tld_stats, ptr %tld_stats.addr, align 8
  %memkind = getelementptr inbounds %struct.mi_memid_s, ptr %memid, i32 0, i32 4
  %0 = load i32, ptr %memkind, align 4
  %call = call zeroext i1 @mi_memkind_is_os(i32 noundef %0) #5
  br i1 %call, label %if.then, label %if.else12

if.then:                                          ; preds = %entry
  %1 = load i64, ptr %size.addr, align 8
  %call1 = call i64 @_mi_os_good_alloc_size(i64 noundef %1) #5
  store i64 %call1, ptr %csize, align 8
  %2 = load ptr, ptr %addr.addr, align 8
  store ptr %2, ptr %base, align 8
  %mem = getelementptr inbounds %struct.mi_memid_s, ptr %memid, i32 0, i32 0
  %base2 = getelementptr inbounds %struct.mi_memid_os_info, ptr %mem, i32 0, i32 0
  %3 = load ptr, ptr %base2, align 8
  %cmp = icmp ne ptr %3, null
  br i1 %cmp, label %if.then3, label %if.end

if.then3:                                         ; preds = %if.then
  %mem4 = getelementptr inbounds %struct.mi_memid_s, ptr %memid, i32 0, i32 0
  %base5 = getelementptr inbounds %struct.mi_memid_os_info, ptr %mem4, i32 0, i32 0
  %4 = load ptr, ptr %base5, align 8
  store ptr %4, ptr %base, align 8
  %5 = load ptr, ptr %addr.addr, align 8
  %mem6 = getelementptr inbounds %struct.mi_memid_s, ptr %memid, i32 0, i32 0
  %base7 = getelementptr inbounds %struct.mi_memid_os_info, ptr %mem6, i32 0, i32 0
  %6 = load ptr, ptr %base7, align 8
  %sub.ptr.lhs.cast = ptrtoint ptr %5 to i64
  %sub.ptr.rhs.cast = ptrtoint ptr %6 to i64
  %sub.ptr.sub = sub i64 %sub.ptr.lhs.cast, %sub.ptr.rhs.cast
  %7 = load i64, ptr %csize, align 8
  %add = add i64 %7, %sub.ptr.sub
  store i64 %add, ptr %csize, align 8
  br label %if.end

if.end:                                           ; preds = %if.then3, %if.then
  %memkind8 = getelementptr inbounds %struct.mi_memid_s, ptr %memid, i32 0, i32 4
  %8 = load i32, ptr %memkind8, align 4
  %cmp9 = icmp eq i32 %8, 4
  br i1 %cmp9, label %if.then10, label %if.else

if.then10:                                        ; preds = %if.end
  %9 = load ptr, ptr %base, align 8
  %10 = load i64, ptr %csize, align 8
  %11 = load ptr, ptr %tld_stats.addr, align 8
  call void @mi_os_free_huge_os_pages(ptr noundef %9, i64 noundef %10, ptr noundef %11) #5
  br label %if.end11

if.else:                                          ; preds = %if.end
  %12 = load ptr, ptr %base, align 8
  %13 = load i64, ptr %csize, align 8
  %14 = load i8, ptr %still_committed.addr, align 1
  %tobool = trunc i8 %14 to i1
  %15 = load ptr, ptr %tld_stats.addr, align 8
  call void @mi_os_prim_free(ptr noundef %12, i64 noundef %13, i1 noundef zeroext %tobool, ptr noundef %15) #5
  br label %if.end11

if.end11:                                         ; preds = %if.else, %if.then10
  br label %if.end13

if.else12:                                        ; preds = %entry
  br label %if.end13

if.end13:                                         ; preds = %if.else12, %if.end11
  ret void
}