; Function Attrs: nounwind uwtable
define hidden void @_mi_os_free_ex(ptr noundef %addr, i64 noundef %size, i1 noundef zeroext %still_committed, ptr noundef readonly byval(%struct.mi_memid_s) align 8 captures(none) %memid, ptr readnone captures(none) %tld_stats) local_unnamed_addr #1 {
entry:
  %memkind = getelementptr inbounds nuw i8, ptr %memid, i64 20
  %0 = load i32, ptr %memkind, align 4
  %1 = add i32 %0, -3
  %2 = icmp ult i32 %1, 3
  br i1 %2, label %if.then, label %if.end13

if.then:                                          ; preds = %entry
  %cmp.i = icmp ult i64 %size, 524288
  br i1 %cmp.i, label %if.then.i, label %if.else.i

if.then.i:                                        ; preds = %if.then
  %3 = load i64, ptr @mi_os_mem_config, align 8
  br label %if.end12.i

if.else.i:                                        ; preds = %if.then
  %cmp1.i = icmp ult i64 %size, 2097152
  br i1 %cmp1.i, label %if.end12.i, label %if.else3.i

if.else3.i:                                       ; preds = %if.else.i
  %cmp4.i = icmp ult i64 %size, 8388608
  br i1 %cmp4.i, label %if.end12.i, label %if.else6.i

if.else6.i:                                       ; preds = %if.else3.i
  %cmp7.i = icmp ult i64 %size, 33554432
  %..i = select i1 %cmp7.i, i64 1048576, i64 4194304
  br label %if.end12.i

if.end12.i:                                       ; preds = %if.else6.i, %if.else3.i, %if.else.i, %if.then.i
  %align_size.0.i = phi i64 [ %3, %if.then.i ], [ 65536, %if.else.i ], [ 262144, %if.else3.i ], [ %..i, %if.else6.i ]
  %sub.i = xor i64 %align_size.0.i, -1
  %cmp13.not.i = icmp ult i64 %size, %sub.i
  br i1 %cmp13.not.i, label %if.end16.i, label %_mi_os_good_alloc_size.exit

if.end16.i:                                       ; preds = %if.end12.i
  %4 = tail call range(i64 0, 65) i64 @llvm.ctpop.i64(i64 %align_size.0.i)
  %cmp.i.i = icmp samesign ult i64 %4, 2
  %sub.i.i = add i64 %size, -1
  %add.i.i = add i64 %sub.i.i, %align_size.0.i
  br i1 %cmp.i.i, label %if.then.i.i, label %if.else.i.i

if.then.i.i:                                      ; preds = %if.end16.i
  %not.i.i = sub i64 0, %align_size.0.i
  %and1.i.i = and i64 %add.i.i, %not.i.i
  br label %_mi_os_good_alloc_size.exit

if.else.i.i:                                      ; preds = %if.end16.i
  %5 = urem i64 %add.i.i, %align_size.0.i
  %mul.i.i = sub nuw i64 %add.i.i, %5
  br label %_mi_os_good_alloc_size.exit

_mi_os_good_alloc_size.exit:                      ; preds = %if.end12.i, %if.then.i.i, %if.else.i.i
  %retval.0.i = phi i64 [ %size, %if.end12.i ], [ %and1.i.i, %if.then.i.i ], [ %mul.i.i, %if.else.i.i ]
  %6 = load ptr, ptr %memid, align 8
  %cmp.not = icmp eq ptr %6, null
  %sub.ptr.lhs.cast = ptrtoint ptr %addr to i64
  %sub.ptr.rhs.cast = ptrtoint ptr %6 to i64
  %sub.ptr.sub = sub i64 %sub.ptr.lhs.cast, %sub.ptr.rhs.cast
  %add = select i1 %cmp.not, i64 0, i64 %sub.ptr.sub
  %csize.0 = add i64 %add, %retval.0.i
  %base.0 = select i1 %cmp.not, ptr %addr, ptr %6
  %cmp9 = icmp eq i32 %0, 4
  br i1 %cmp9, label %if.then10, label %if.else

if.then10:                                        ; preds = %_mi_os_good_alloc_size.exit
  %cmp.i6 = icmp ne ptr %base.0, null
  %cmp21.i = icmp ugt i64 %csize.0, 1073741823
  %or.cond4.i = and i1 %cmp.i6, %cmp21.i
  br i1 %or.cond4.i, label %if.end.i.i, label %if.end13

if.end.i.i:                                       ; preds = %if.then10, %mi_os_prim_free.exit.i
  %base.03.i = phi ptr [ %add.ptr.i, %mi_os_prim_free.exit.i ], [ %base.0, %if.then10 ]
  %size.addr.02.i = phi i64 [ %sub.i7, %mi_os_prim_free.exit.i ], [ %csize.0, %if.then10 ]
  %call.i.i = tail call i32 @_mi_prim_free(ptr noundef nonnull %base.03.i, i64 noundef 1073741824) #7
  %cmp2.not.i.i = icmp eq i32 %call.i.i, 0
  br i1 %cmp2.not.i.i, label %mi_os_prim_free.exit.i, label %if.then3.i.i

if.then3.i.i:                                     ; preds = %if.end.i.i
  tail call void (ptr, ...) @_mi_warning_message(ptr noundef nonnull @.str.6, i32 noundef %call.i.i, i32 noundef %call.i.i, i64 noundef 1073741824, ptr noundef nonnull %base.03.i) #7
  br label %mi_os_prim_free.exit.i

mi_os_prim_free.exit.i:                           ; preds = %if.then3.i.i, %if.end.i.i
  tail call void @_mi_stat_decrease(ptr noundef nonnull getelementptr inbounds nuw (i8, ptr @_mi_stats_main, i64 96), i64 noundef 1073741824) #7
  tail call void @_mi_stat_decrease(ptr noundef nonnull getelementptr inbounds nuw (i8, ptr @_mi_stats_main, i64 64), i64 noundef 1073741824) #7
  %sub.i7 = add i64 %size.addr.02.i, -1073741824
  %add.ptr.i = getelementptr inbounds nuw i8, ptr %base.03.i, i64 1073741824
  %cmp2.i = icmp ugt i64 %sub.i7, 1073741823
  br i1 %cmp2.i, label %if.end.i.i, label %if.end13, !llvm.loop !4

if.else:                                          ; preds = %_mi_os_good_alloc_size.exit
  %cmp.i8 = icmp eq ptr %base.0, null
  %cmp1.i9 = icmp eq i64 %csize.0, 0
  %or.cond.i = or i1 %cmp.i8, %cmp1.i9
  br i1 %or.cond.i, label %if.end13, label %if.end.i

if.end.i:                                         ; preds = %if.else
  %call.i = tail call i32 @_mi_prim_free(ptr noundef nonnull %base.0, i64 noundef %csize.0) #7
  %cmp2.not.i = icmp eq i32 %call.i, 0
  br i1 %cmp2.not.i, label %if.end4.i, label %if.then3.i

if.then3.i:                                       ; preds = %if.end.i
  tail call void (ptr, ...) @_mi_warning_message(ptr noundef nonnull @.str.6, i32 noundef %call.i, i32 noundef %call.i, i64 noundef %csize.0, ptr noundef nonnull %base.0) #7
  br label %if.end4.i

if.end4.i:                                        ; preds = %if.then3.i, %if.end.i
  br i1 %still_committed, label %if.then5.i, label %if.end6.i

if.then5.i:                                       ; preds = %if.end4.i
  tail call void @_mi_stat_decrease(ptr noundef nonnull getelementptr inbounds nuw (i8, ptr @_mi_stats_main, i64 96), i64 noundef %csize.0) #7
  br label %if.end6.i

if.end6.i:                                        ; preds = %if.then5.i, %if.end4.i
  tail call void @_mi_stat_decrease(ptr noundef nonnull getelementptr inbounds nuw (i8, ptr @_mi_stats_main, i64 64), i64 noundef %csize.0) #7
  br label %if.end13

if.end13:                                         ; preds = %mi_os_prim_free.exit.i, %if.end6.i, %if.else, %if.then10, %entry
  ret void
}